target datalayout = "e-m:e-p270:32:32-p271:32:32-p272:64:64-i64:64-i128:128-f80:128-n8:16:32:64-S128"
target triple = "x86_64-pc-linux-gnu"

%"class.pxrInternal_v0_24__pxrReserved__::GfMatrix4f" = type { %"class.pxrInternal_v0_24__pxrReserved__::GfMatrixData" }
%"class.pxrInternal_v0_24__pxrReserved__::GfMatrixData" = type { [16 x float] }

; Function Attrs: mustprogress nounwind uwtable
define linkonce_odr noundef ptr @_ZN32pxrInternal_v0_24__pxrReserved__12GfMatrixDataIfLi4ELi4EEixEi(ptr noundef nonnull align 4 dereferenceable(64) %0, i32 noundef %1) #2 comdat align 2 {
  %3 = alloca ptr, align 8
  %4 = alloca i32, align 4
  store ptr %0, ptr %3, align 8
  store i32 %1, ptr %4, align 4
  %5 = load ptr, ptr %3, align 8
  %6 = getelementptr inbounds nuw %"class.pxrInternal_v0_24__pxrReserved__::GfMatrixData", ptr %5, i32 0, i32 0
  %7 = getelementptr inbounds [16 x float], ptr %6, i64 0, i64 0
  %8 = load i32, ptr %4, align 4
  %9 = mul nsw i32 %8, 4
  %10 = sext i32 %9 to i64
  %11 = getelementptr inbounds float, ptr %7, i64 %10
  ret ptr %11
}

; Function Attrs: mustprogress nounwind uwtable
define linkonce_odr noundef ptr @_ZNK32pxrInternal_v0_24__pxrReserved__12GfMatrixDataIfLi4ELi4EEixEi(ptr noundef nonnull align 4 dereferenceable(64) %0, i32 noundef %1) #2 comdat align 2 {
  %3 = alloca ptr, align 8
  %4 = alloca i32, align 4
  store ptr %0, ptr %3, align 8
  store i32 %1, ptr %4, align 4
  %5 = load ptr, ptr %3, align 8
  %6 = getelementptr inbounds nuw %"class.pxrInternal_v0_24__pxrReserved__::GfMatrixData", ptr %5, i32 0, i32 0
  %7 = getelementptr inbounds [16 x float], ptr %6, i64 0, i64 0
  %8 = load i32, ptr %4, align 4
  %9 = mul nsw i32 %8, 4
  %10 = sext i32 %9 to i64
  %11 = getelementptr inbounds float, ptr %7, i64 %10
  ret ptr %11
}

; Function Attrs: mustprogress uwtable
define noundef nonnull align 4 dereferenceable(64) ptr @_ZN32pxrInternal_v0_24__pxrReserved__10GfMatrix4fpLERKS0_(ptr noundef nonnull align 4 dereferenceable(64) %0, ptr noundef nonnull align 4 dereferenceable(64) %1) #0 align 2 {
  %3 = alloca ptr, align 8
  %4 = alloca ptr, align 8
  store ptr %0, ptr %3, align 8
  store ptr %1, ptr %4, align 8
  %5 = load ptr, ptr %3, align 8
  %6 = load ptr, ptr %4, align 8
  %7 = getelementptr inbounds nuw %"class.pxrInternal_v0_24__pxrReserved__::GfMatrix4f", ptr %6, i32 0, i32 0
  %8 = call noundef ptr @_ZNK32pxrInternal_v0_24__pxrReserved__12GfMatrixDataIfLi4ELi4EEixEi(ptr noundef nonnull align 4 dereferenceable(64) %7, i32 noundef 0)
  %9 = getelementptr inbounds float, ptr %8, i64 0
  %10 = load float, ptr %9, align 4
  %11 = getelementptr inbounds nuw %"class.pxrInternal_v0_24__pxrReserved__::GfMatrix4f", ptr %5, i32 0, i32 0
  %12 = call noundef ptr @_ZN32pxrInternal_v0_24__pxrReserved__12GfMatrixDataIfLi4ELi4EEixEi(ptr noundef nonnull align 4 dereferenceable(64) %11, i32 noundef 0)
  %13 = getelementptr inbounds float, ptr %12, i64 0
  %14 = load float, ptr %13, align 4
  %15 = fadd float %14, %10
  store float %15, ptr %13, align 4
  %16 = load ptr, ptr %4, align 8
  %17 = getelementptr inbounds nuw %"class.pxrInternal_v0_24__pxrReserved__::GfMatrix4f", ptr %16, i32 0, i32 0
  %18 = call noundef ptr @_ZNK32pxrInternal_v0_24__pxrReserved__12GfMatrixDataIfLi4ELi4EEixEi(ptr noundef nonnull align 4 dereferenceable(64) %17, i32 noundef 0)
  %19 = getelementptr inbounds float, ptr %18, i64 1
  %20 = load float, ptr %19, align 4
  %21 = getelementptr inbounds nuw %"class.pxrInternal_v0_24__pxrReserved__::GfMatrix4f", ptr %5, i32 0, i32 0
  %22 = call noundef ptr @_ZN32pxrInternal_v0_24__pxrReserved__12GfMatrixDataIfLi4ELi4EEixEi(ptr noundef nonnull align 4 dereferenceable(64) %21, i32 noundef 0)
  %23 = getelementptr inbounds float, ptr %22, i64 1
  %24 = load float, ptr %23, align 4
  %25 = fadd float %24, %20
  store float %25, ptr %23, align 4
  %26 = load ptr, ptr %4, align 8
  %27 = getelementptr inbounds nuw %"class.pxrInternal_v0_24__pxrReserved__::GfMatrix4f", ptr %26, i32 0, i32 0
  %28 = call noundef ptr @_ZNK32pxrInternal_v0_24__pxrReserved__12GfMatrixDataIfLi4ELi4EEixEi(ptr noundef nonnull align 4 dereferenceable(64) %27, i32 noundef 0)
  %29 = getelementptr inbounds float, ptr %28, i64 2
  %30 = load float, ptr %29, align 4
  %31 = getelementptr inbounds nuw %"class.pxrInternal_v0_24__pxrReserved__::GfMatrix4f", ptr %5, i32 0, i32 0
  %32 = call noundef ptr @_ZN32pxrInternal_v0_24__pxrReserved__12GfMatrixDataIfLi4ELi4EEixEi(ptr noundef nonnull align 4 dereferenceable(64) %31, i32 noundef 0)
  %33 = getelementptr inbounds float, ptr %32, i64 2
  %34 = load float, ptr %33, align 4
  %35 = fadd float %34, %30
  store float %35, ptr %33, align 4
  %36 = load ptr, ptr %4, align 8
  %37 = getelementptr inbounds nuw %"class.pxrInternal_v0_24__pxrReserved__::GfMatrix4f", ptr %36, i32 0, i32 0
  %38 = call noundef ptr @_ZNK32pxrInternal_v0_24__pxrReserved__12GfMatrixDataIfLi4ELi4EEixEi(ptr noundef nonnull align 4 dereferenceable(64) %37, i32 noundef 0)
  %39 = getelementptr inbounds float, ptr %38, i64 3
  %40 = load float, ptr %39, align 4
  %41 = getelementptr inbounds nuw %"class.pxrInternal_v0_24__pxrReserved__::GfMatrix4f", ptr %5, i32 0, i32 0
  %42 = call noundef ptr @_ZN32pxrInternal_v0_24__pxrReserved__12GfMatrixDataIfLi4ELi4EEixEi(ptr noundef nonnull align 4 dereferenceable(64) %41, i32 noundef 0)
  %43 = getelementptr inbounds float, ptr %42, i64 3
  %44 = load float, ptr %43, align 4
  %45 = fadd float %44, %40
  store float %45, ptr %43, align 4
  %46 = load ptr, ptr %4, align 8
  %47 = getelementptr inbounds nuw %"class.pxrInternal_v0_24__pxrReserved__::GfMatrix4f", ptr %46, i32 0, i32 0
  %48 = call noundef ptr @_ZNK32pxrInternal_v0_24__pxrReserved__12GfMatrixDataIfLi4ELi4EEixEi(ptr noundef nonnull align 4 dereferenceable(64) %47, i32 noundef 1)
  %49 = getelementptr inbounds float, ptr %48, i64 0
  %50 = load float, ptr %49, align 4
  %51 = getelementptr inbounds nuw %"class.pxrInternal_v0_24__pxrReserved__::GfMatrix4f", ptr %5, i32 0, i32 0
  %52 = call noundef ptr @_ZN32pxrInternal_v0_24__pxrReserved__12GfMatrixDataIfLi4ELi4EEixEi(ptr noundef nonnull align 4 dereferenceable(64) %51, i32 noundef 1)
  %53 = getelementptr inbounds float, ptr %52, i64 0
  %54 = load float, ptr %53, align 4
  %55 = fadd float %54, %50
  store float %55, ptr %53, align 4
  %56 = load ptr, ptr %4, align 8
  %57 = getelementptr inbounds nuw %"class.pxrInternal_v0_24__pxrReserved__::GfMatrix4f", ptr %56, i32 0, i32 0
  %58 = call noundef ptr @_ZNK32pxrInternal_v0_24__pxrReserved__12GfMatrixDataIfLi4ELi4EEixEi(ptr noundef nonnull align 4 dereferenceable(64) %57, i32 noundef 1)
  %59 = getelementptr inbounds float, ptr %58, i64 1
  %60 = load float, ptr %59, align 4
  %61 = getelementptr inbounds nuw %"class.pxrInternal_v0_24__pxrReserved__::GfMatrix4f", ptr %5, i32 0, i32 0
  %62 = call noundef ptr @_ZN32pxrInternal_v0_24__pxrReserved__12GfMatrixDataIfLi4ELi4EEixEi(ptr noundef nonnull align 4 dereferenceable(64) %61, i32 noundef 1)
  %63 = getelementptr inbounds float, ptr %62, i64 1
  %64 = load float, ptr %63, align 4
  %65 = fadd float %64, %60
  store float %65, ptr %63, align 4
  %66 = load ptr, ptr %4, align 8
  %67 = getelementptr inbounds nuw %"class.pxrInternal_v0_24__pxrReserved__::GfMatrix4f", ptr %66, i32 0, i32 0
  %68 = call noundef ptr @_ZNK32pxrInternal_v0_24__pxrReserved__12GfMatrixDataIfLi4ELi4EEixEi(ptr noundef nonnull align 4 dereferenceable(64) %67, i32 noundef 1)
  %69 = getelementptr inbounds float, ptr %68, i64 2
  %70 = load float, ptr %69, align 4
  %71 = getelementptr inbounds nuw %"class.pxrInternal_v0_24__pxrReserved__::GfMatrix4f", ptr %5, i32 0, i32 0
  %72 = call noundef ptr @_ZN32pxrInternal_v0_24__pxrReserved__12GfMatrixDataIfLi4ELi4EEixEi(ptr noundef nonnull align 4 dereferenceable(64) %71, i32 noundef 1)
  %73 = getelementptr inbounds float, ptr %72, i64 2
  %74 = load float, ptr %73, align 4
  %75 = fadd float %74, %70
  store float %75, ptr %73, align 4
  %76 = load ptr, ptr %4, align 8
  %77 = getelementptr inbounds nuw %"class.pxrInternal_v0_24__pxrReserved__::GfMatrix4f", ptr %76, i32 0, i32 0
  %78 = call noundef ptr @_ZNK32pxrInternal_v0_24__pxrReserved__12GfMatrixDataIfLi4ELi4EEixEi(ptr noundef nonnull align 4 dereferenceable(64) %77, i32 noundef 1)
  %79 = getelementptr inbounds float, ptr %78, i64 3
  %80 = load float, ptr %79, align 4
  %81 = getelementptr inbounds nuw %"class.pxrInternal_v0_24__pxrReserved__::GfMatrix4f", ptr %5, i32 0, i32 0
  %82 = call noundef ptr @_ZN32pxrInternal_v0_24__pxrReserved__12GfMatrixDataIfLi4ELi4EEixEi(ptr noundef nonnull align 4 dereferenceable(64) %81, i32 noundef 1)
  %83 = getelementptr inbounds float, ptr %82, i64 3
  %84 = load float, ptr %83, align 4
  %85 = fadd float %84, %80
  store float %85, ptr %83, align 4
  %86 = load ptr, ptr %4, align 8
  %87 = getelementptr inbounds nuw %"class.pxrInternal_v0_24__pxrReserved__::GfMatrix4f", ptr %86, i32 0, i32 0
  %88 = call noundef ptr @_ZNK32pxrInternal_v0_24__pxrReserved__12GfMatrixDataIfLi4ELi4EEixEi(ptr noundef nonnull align 4 dereferenceable(64) %87, i32 noundef 2)
  %89 = getelementptr inbounds float, ptr %88, i64 0
  %90 = load float, ptr %89, align 4
  %91 = getelementptr inbounds nuw %"class.pxrInternal_v0_24__pxrReserved__::GfMatrix4f", ptr %5, i32 0, i32 0
  %92 = call noundef ptr @_ZN32pxrInternal_v0_24__pxrReserved__12GfMatrixDataIfLi4ELi4EEixEi(ptr noundef nonnull align 4 dereferenceable(64) %91, i32 noundef 2)
  %93 = getelementptr inbounds float, ptr %92, i64 0
  %94 = load float, ptr %93, align 4
  %95 = fadd float %94, %90
  store float %95, ptr %93, align 4
  %96 = load ptr, ptr %4, align 8
  %97 = getelementptr inbounds nuw %"class.pxrInternal_v0_24__pxrReserved__::GfMatrix4f", ptr %96, i32 0, i32 0
  %98 = call noundef ptr @_ZNK32pxrInternal_v0_24__pxrReserved__12GfMatrixDataIfLi4ELi4EEixEi(ptr noundef nonnull align 4 dereferenceable(64) %97, i32 noundef 2)
  %99 = getelementptr inbounds float, ptr %98, i64 1
  %100 = load float, ptr %99, align 4
  %101 = getelementptr inbounds nuw %"class.pxrInternal_v0_24__pxrReserved__::GfMatrix4f", ptr %5, i32 0, i32 0
  %102 = call noundef ptr @_ZN32pxrInternal_v0_24__pxrReserved__12GfMatrixDataIfLi4ELi4EEixEi(ptr noundef nonnull align 4 dereferenceable(64) %101, i32 noundef 2)
  %103 = getelementptr inbounds float, ptr %102, i64 1
  %104 = load float, ptr %103, align 4
  %105 = fadd float %104, %100
  store float %105, ptr %103, align 4
  %106 = load ptr, ptr %4, align 8
  %107 = getelementptr inbounds nuw %"class.pxrInternal_v0_24__pxrReserved__::GfMatrix4f", ptr %106, i32 0, i32 0
  %108 = call noundef ptr @_ZNK32pxrInternal_v0_24__pxrReserved__12GfMatrixDataIfLi4ELi4EEixEi(ptr noundef nonnull align 4 dereferenceable(64) %107, i32 noundef 2)
  %109 = getelementptr inbounds float, ptr %108, i64 2
  %110 = load float, ptr %109, align 4
  %111 = getelementptr inbounds nuw %"class.pxrInternal_v0_24__pxrReserved__::GfMatrix4f", ptr %5, i32 0, i32 0
  %112 = call noundef ptr @_ZN32pxrInternal_v0_24__pxrReserved__12GfMatrixDataIfLi4ELi4EEixEi(ptr noundef nonnull align 4 dereferenceable(64) %111, i32 noundef 2)
  %113 = getelementptr inbounds float, ptr %112, i64 2
  %114 = load float, ptr %113, align 4
  %115 = fadd float %114, %110
  store float %115, ptr %113, align 4
  %116 = load ptr, ptr %4, align 8
  %117 = getelementptr inbounds nuw %"class.pxrInternal_v0_24__pxrReserved__::GfMatrix4f", ptr %116, i32 0, i32 0
  %118 = call noundef ptr @_ZNK32pxrInternal_v0_24__pxrReserved__12GfMatrixDataIfLi4ELi4EEixEi(ptr noundef nonnull align 4 dereferenceable(64) %117, i32 noundef 2)
  %119 = getelementptr inbounds float, ptr %118, i64 3
  %120 = load float, ptr %119, align 4
  %121 = getelementptr inbounds nuw %"class.pxrInternal_v0_24__pxrReserved__::GfMatrix4f", ptr %5, i32 0, i32 0
  %122 = call noundef ptr @_ZN32pxrInternal_v0_24__pxrReserved__12GfMatrixDataIfLi4ELi4EEixEi(ptr noundef nonnull align 4 dereferenceable(64) %121, i32 noundef 2)
  %123 = getelementptr inbounds float, ptr %122, i64 3
  %124 = load float, ptr %123, align 4
  %125 = fadd float %124, %120
  store float %125, ptr %123, align 4
  %126 = load ptr, ptr %4, align 8
  %127 = getelementptr inbounds nuw %"class.pxrInternal_v0_24__pxrReserved__::GfMatrix4f", ptr %126, i32 0, i32 0
  %128 = call noundef ptr @_ZNK32pxrInternal_v0_24__pxrReserved__12GfMatrixDataIfLi4ELi4EEixEi(ptr noundef nonnull align 4 dereferenceable(64) %127, i32 noundef 3)
  %129 = getelementptr inbounds float, ptr %128, i64 0
  %130 = load float, ptr %129, align 4
  %131 = getelementptr inbounds nuw %"class.pxrInternal_v0_24__pxrReserved__::GfMatrix4f", ptr %5, i32 0, i32 0
  %132 = call noundef ptr @_ZN32pxrInternal_v0_24__pxrReserved__12GfMatrixDataIfLi4ELi4EEixEi(ptr noundef nonnull align 4 dereferenceable(64) %131, i32 noundef 3)
  %133 = getelementptr inbounds float, ptr %132, i64 0
  %134 = load float, ptr %133, align 4
  %135 = fadd float %134, %130
  store float %135, ptr %133, align 4
  %136 = load ptr, ptr %4, align 8
  %137 = getelementptr inbounds nuw %"class.pxrInternal_v0_24__pxrReserved__::GfMatrix4f", ptr %136, i32 0, i32 0
  %138 = call noundef ptr @_ZNK32pxrInternal_v0_24__pxrReserved__12GfMatrixDataIfLi4ELi4EEixEi(ptr noundef nonnull align 4 dereferenceable(64) %137, i32 noundef 3)
  %139 = getelementptr inbounds float, ptr %138, i64 1
  %140 = load float, ptr %139, align 4
  %141 = getelementptr inbounds nuw %"class.pxrInternal_v0_24__pxrReserved__::GfMatrix4f", ptr %5, i32 0, i32 0
  %142 = call noundef ptr @_ZN32pxrInternal_v0_24__pxrReserved__12GfMatrixDataIfLi4ELi4EEixEi(ptr noundef nonnull align 4 dereferenceable(64) %141, i32 noundef 3)
  %143 = getelementptr inbounds float, ptr %142, i64 1
  %144 = load float, ptr %143, align 4
  %145 = fadd float %144, %140
  store float %145, ptr %143, align 4
  %146 = load ptr, ptr %4, align 8
  %147 = getelementptr inbounds nuw %"class.pxrInternal_v0_24__pxrReserved__::GfMatrix4f", ptr %146, i32 0, i32 0
  %148 = call noundef ptr @_ZNK32pxrInternal_v0_24__pxrReserved__12GfMatrixDataIfLi4ELi4EEixEi(ptr noundef nonnull align 4 dereferenceable(64) %147, i32 noundef 3)
  %149 = getelementptr inbounds float, ptr %148, i64 2
  %150 = load float, ptr %149, align 4
  %151 = getelementptr inbounds nuw %"class.pxrInternal_v0_24__pxrReserved__::GfMatrix4f", ptr %5, i32 0, i32 0
  %152 = call noundef ptr @_ZN32pxrInternal_v0_24__pxrReserved__12GfMatrixDataIfLi4ELi4EEixEi(ptr noundef nonnull align 4 dereferenceable(64) %151, i32 noundef 3)
  %153 = getelementptr inbounds float, ptr %152, i64 2
  %154 = load float, ptr %153, align 4
  %155 = fadd float %154, %150
  store float %155, ptr %153, align 4
  %156 = load ptr, ptr %4, align 8
  %157 = getelementptr inbounds nuw %"class.pxrInternal_v0_24__pxrReserved__::GfMatrix4f", ptr %156, i32 0, i32 0
  %158 = call noundef ptr @_ZNK32pxrInternal_v0_24__pxrReserved__12GfMatrixDataIfLi4ELi4EEixEi(ptr noundef nonnull align 4 dereferenceable(64) %157, i32 noundef 3)
  %159 = getelementptr inbounds float, ptr %158, i64 3
  %160 = load float, ptr %159, align 4
  %161 = getelementptr inbounds nuw %"class.pxrInternal_v0_24__pxrReserved__::GfMatrix4f", ptr %5, i32 0, i32 0
  %162 = call noundef ptr @_ZN32pxrInternal_v0_24__pxrReserved__12GfMatrixDataIfLi4ELi4EEixEi(ptr noundef nonnull align 4 dereferenceable(64) %161, i32 noundef 3)
  %163 = getelementptr inbounds float, ptr %162, i64 3
  %164 = load float, ptr %163, align 4
  %165 = fadd float %164, %160
  store float %165, ptr %163, align 4
  ret ptr %5
}